; ModuleID = '54/1089.c'
source_filename = "54/1089.c"
target datalayout = "e-m:e-p270:32:32-p271:32:32-p272:64:64-i64:64-f80:128-n8:16:32:64-S128"
target triple = "x86_64-pc-linux-gnu"

@.str = private unnamed_addr constant [6 x i8] c"%d %d\00", align 1
@.str.1 = private unnamed_addr constant [4 x i8] c"%d\0A\00", align 1

; Function Attrs: noinline nounwind uwtable
define dso_local i32 @f() #0 {
  %1 = alloca i32, align 4
  %2 = alloca i32, align 4
  %3 = alloca i32, align 4
  %4 = alloca i32, align 4
  %5 = alloca i32, align 4
  %6 = alloca i32, align 4
  %7 = call i32 (i8*, ...) @__isoc99_scanf(i8* getelementptr inbounds ([6 x i8], [6 x i8]* @.str, i64 0, i64 0), i32* %1, i32* %2)
  store i32 0, i32* %5, align 4
  br label %8

8:                                                ; preds = %0, %47
  %9 = load i32, i32* %5, align 4
  %10 = add nsw i32 %9, 1
  store i32 %10, i32* %5, align 4
  %11 = load i32, i32* %5, align 4
  %12 = load i32, i32* %1, align 4
  %13 = mul nsw i32 %11, %12
  %14 = load i32, i32* %2, align 4
  %15 = add nsw i32 %13, %14
  store i32 %15, i32* %3, align 4
  store i32 1, i32* %6, align 4
  store i32 1, i32* %4, align 4
  br label %16

16:                                               ; preds = %40, %8
  %17 = load i32, i32* %4, align 4
  %18 = load i32, i32* %1, align 4
  %19 = icmp slt i32 %17, %18
  br i1 %19, label %20, label %23

20:                                               ; preds = %16
  %21 = load i32, i32* %6, align 4
  %22 = icmp ne i32 %21, 0
  br label %23

23:                                               ; preds = %20, %16
  %24 = phi i1 [ false, %16 ], [ %22, %20 ]
  br i1 %24, label %25, label %43

25:                                               ; preds = %23
  %26 = load i32, i32* %3, align 4
  %27 = load i32, i32* %1, align 4
  %28 = sub nsw i32 %27, 1
  %29 = srem i32 %26, %28
  %30 = icmp eq i32 %29, 0
  %31 = zext i1 %30 to i32
  store i32 %31, i32* %6, align 4
  %32 = load i32, i32* %3, align 4
  %33 = load i32, i32* %1, align 4
  %34 = sub nsw i32 %33, 1
  %35 = sdiv i32 %32, %34
  %36 = load i32, i32* %1, align 4
  %37 = mul nsw i32 %35, %36
  %38 = load i32, i32* %2, align 4
  %39 = add nsw i32 %37, %38
  store i32 %39, i32* %3, align 4
  br label %40

40:                                               ; preds = %25
  %41 = load i32, i32* %4, align 4
  %42 = add nsw i32 %41, 1
  store i32 %42, i32* %4, align 4
  br label %16

43:                                               ; preds = %23
  %44 = load i32, i32* %6, align 4
  %45 = icmp ne i32 %44, 0
  br i1 %45, label %46, label %47

46:                                               ; preds = %43
  br label %48

47:                                               ; preds = %43
  br label %8

48:                                               ; preds = %46
  %49 = load i32, i32* %3, align 4
  %50 = call i32 (i8*, ...) @printf(i8* getelementptr inbounds ([4 x i8], [4 x i8]* @.str.1, i64 0, i64 0), i32 %49)
  ret i32 0
}

declare dso_local i32 @__isoc99_scanf(i8*, ...) #1

declare dso_local i32 @printf(i8*, ...) #1

; Function Attrs: noinline nounwind uwtable
define dso_local i32 @main() #0 {
  %1 = call i32 @f()
  ret i32 0
}


!llvm.module.flags = !{!0}
!llvm.ident = !{!1}

!0 = !{i32 1, !"wchar_size", i32 4}
!1 = !{!"clang version 10.0.0-4ubuntu1 "}
